target datalayout = "e-m:e-p270:32:32-p271:32:32-p272:64:64-i64:64-i128:128-f80:128-n8:16:32:64-S128"
target triple = "x86_64-pc-linux-gnu"

%struct.ZSTD_seqSymbol = type { i16, i8, i8, i32 }
%struct.ZSTD_DCtx_s = type { ptr, ptr, ptr, ptr, %struct.ZSTD_entropyDTables_t, [640 x i32], ptr, ptr, ptr, ptr, i64, %struct.ZSTD_frameHeader, i64, i64, i32, i32, i32, i32, %struct.XXH64_state_s, i64, i32, i32, i32, ptr, %struct.ZSTD_customMem, i64, i64, i64, ptr, ptr, i32, i32, i32, ptr, i32, i32, i32, ptr, i64, i64, i64, ptr, i64, i64, i64, i64, i32, i32, i32, %struct.ZSTD_outBuffer_s, ptr, ptr, i32, [65568 x i8], [18 x i8], i64, i64 }
%struct.ZSTD_entropyDTables_t = type { [513 x %struct.ZSTD_seqSymbol], [257 x %struct.ZSTD_seqSymbol], [513 x %struct.ZSTD_seqSymbol], [4097 x i32], [3 x i32], [157 x i32] }
%struct.ZSTD_frameHeader = type { i64, i64, i32, i32, i32, i32, i32, i32, i32 }
%struct.XXH64_state_s = type { i64, [4 x i64], [4 x i64], i32, i32, i64 }
%struct.ZSTD_customMem = type { ptr, ptr, ptr }
%struct.ZSTD_outBuffer_s = type { ptr, i64, i64 }
%struct.ZSTD_OffsetInfo = type { i32, i32 }

; Function Attrs: nounwind uwtable
define internal i32 @MEM_64bits() #0 {
  ret i32 1
}

; Function Attrs: nounwind uwtable
define internal i64 @ZSTD_maxShortOffset() #0 {
  %1 = alloca i64, align 8
  %2 = alloca i64, align 8
  %3 = alloca i64, align 8
  %4 = call i32 @MEM_64bits()
  %5 = icmp ne i32 %4, 0
  br i1 %5, label %6, label %7

6:                                                ; preds = %0
  store i64 -1, ptr %1, align 8
  br label %18

7:                                                ; preds = %0
  %8 = call i32 @MEM_32bits()
  %9 = icmp ne i32 %8, 0
  %10 = select i1 %9, i32 25, i32 57
  %11 = add i32 %10, 1
  %12 = zext i32 %11 to i64
  %13 = shl i64 1, %12
  %14 = sub i64 %13, 1
  store i64 %14, ptr %2, align 8
  %15 = load i64, ptr %2, align 8
  %16 = sub i64 %15, 3
  store i64 %16, ptr %3, align 8
  %17 = load i64, ptr %3, align 8
  store i64 %17, ptr %1, align 8
  br label %18

18:                                               ; preds = %7, %6
  %19 = load i64, ptr %1, align 8
  ret i64 %19
}

; Function Attrs: nounwind uwtable
define internal i32 @MEM_32bits() #0 {
  ret i32 0
}

; Function Attrs: nounwind uwtable
define internal i64 @ZSTD_totalHistorySize(ptr noundef %0, ptr noundef %1) #0 {
  %3 = alloca ptr, align 8
  %4 = alloca ptr, align 8
  store ptr %0, ptr %3, align 8
  store ptr %1, ptr %4, align 8
  %5 = load ptr, ptr %3, align 8
  %6 = load ptr, ptr %4, align 8
  %7 = ptrtoint ptr %5 to i64
  %8 = ptrtoint ptr %6 to i64
  %9 = sub i64 %7, %8
  ret i64 %9
}

; Function Attrs: nounwind uwtable
define internal i32 @ERR_isError(i64 noundef %0) #0 {
  %2 = alloca i64, align 8
  store i64 %0, ptr %2, align 8
  %3 = load i64, ptr %2, align 8
  %4 = icmp ugt i64 %3, -120
  %5 = zext i1 %4 to i32
  ret i32 %5
}

; Function Attrs: nounwind uwtable
define dso_local i64 @ZSTD_decompressBlock_internal(ptr noundef %0, ptr noundef %1, i64 noundef %2, ptr noundef %3, i64 noundef %4, i32 noundef %5, i32 noundef %6) #0 {
  %8 = alloca i64, align 8
  %9 = alloca ptr, align 8
  %10 = alloca ptr, align 8
  %11 = alloca i64, align 8
  %12 = alloca ptr, align 8
  %13 = alloca i64, align 8
  %14 = alloca i32, align 4
  %15 = alloca i32, align 4
  %16 = alloca ptr, align 8
  %17 = alloca i64, align 8
  %18 = alloca i64, align 8
  %19 = alloca i64, align 8
  %20 = alloca i32, align 4
  %21 = alloca i32, align 4
  %22 = alloca i32, align 4
  %23 = alloca i64, align 8
  %24 = alloca %struct.ZSTD_OffsetInfo, align 4
  %25 = alloca i32, align 4
  store ptr %0, ptr %9, align 8
  store ptr %1, ptr %10, align 8
  store i64 %2, ptr %11, align 8
  store ptr %3, ptr %12, align 8
  store i64 %4, ptr %13, align 8
  store i32 %5, ptr %14, align 4
  store i32 %6, ptr %15, align 4
  %26 = load ptr, ptr %12, align 8
  store ptr %26, ptr %16, align 8
  %27 = load i64, ptr %13, align 8
  %28 = icmp ugt i64 %27, 131072
  br i1 %28, label %29, label %30

29:                                               ; preds = %7
  store i64 -72, ptr %8, align 8
  br label %213

30:                                               ; preds = %7
  %31 = load ptr, ptr %9, align 8
  %32 = load ptr, ptr %12, align 8
  %33 = load i64, ptr %13, align 8
  %34 = load ptr, ptr %10, align 8
  %35 = load i64, ptr %11, align 8
  %36 = load i32, ptr %15, align 4
  %37 = call i64 @ZSTD_decodeLiteralsBlock(ptr noundef %31, ptr noundef %32, i64 noundef %33, ptr noundef %34, i64 noundef %35, i32 noundef %36)
  store i64 %37, ptr %17, align 8
  %38 = load i64, ptr %17, align 8
  %39 = call i32 @ERR_isError(i64 noundef %38)
  %40 = icmp ne i32 %39, 0
  br i1 %40, label %41, label %43

41:                                               ; preds = %30
  %42 = load i64, ptr %17, align 8
  store i64 %42, ptr %8, align 8
  br label %213

43:                                               ; preds = %30
  %44 = load i64, ptr %17, align 8
  %45 = load ptr, ptr %16, align 8
  %46 = getelementptr inbounds i8, ptr %45, i64 %44
  store ptr %46, ptr %16, align 8
  %47 = load i64, ptr %17, align 8
  %48 = load i64, ptr %13, align 8
  %49 = sub i64 %48, %47
  store i64 %49, ptr %13, align 8
  %50 = load i64, ptr %11, align 8
  %51 = load i32, ptr %14, align 4
  %52 = icmp ne i32 %51, 0
  br i1 %52, label %53, label %58

53:                                               ; preds = %43
  %54 = load ptr, ptr %9, align 8
  %55 = getelementptr inbounds %struct.ZSTD_DCtx_s, ptr %54, i32 0, i32 11
  %56 = getelementptr inbounds %struct.ZSTD_frameHeader, ptr %55, i32 0, i32 2
  %57 = load i32, ptr %56, align 8
  br label %59

58:                                               ; preds = %43
  br label %59

59:                                               ; preds = %58, %53
  %60 = phi i32 [ %57, %53 ], [ 131072, %58 ]
  %61 = zext i32 %60 to i64
  %62 = icmp ult i64 %50, %61
  br i1 %62, label %63, label %65

63:                                               ; preds = %59
  %64 = load i64, ptr %11, align 8
  br label %77

65:                                               ; preds = %59
  %66 = load i32, ptr %14, align 4
  %67 = icmp ne i32 %66, 0
  br i1 %67, label %68, label %73

68:                                               ; preds = %65
  %69 = load ptr, ptr %9, align 8
  %70 = getelementptr inbounds %struct.ZSTD_DCtx_s, ptr %69, i32 0, i32 11
  %71 = getelementptr inbounds %struct.ZSTD_frameHeader, ptr %70, i32 0, i32 2
  %72 = load i32, ptr %71, align 8
  br label %74

73:                                               ; preds = %65
  br label %74

74:                                               ; preds = %73, %68
  %75 = phi i32 [ %72, %68 ], [ 131072, %73 ]
  %76 = zext i32 %75 to i64
  br label %77

77:                                               ; preds = %74, %63
  %78 = phi i64 [ %64, %63 ], [ %76, %74 ]
  store i64 %78, ptr %18, align 8
  %79 = load ptr, ptr %10, align 8
  %80 = load i64, ptr %18, align 8
  %81 = getelementptr inbounds i8, ptr %79, i64 %80
  %82 = load ptr, ptr %9, align 8
  %83 = getelementptr inbounds %struct.ZSTD_DCtx_s, ptr %82, i32 0, i32 8
  %84 = load ptr, ptr %83, align 8
  %85 = call i64 @ZSTD_totalHistorySize(ptr noundef %81, ptr noundef %84)
  store i64 %85, ptr %19, align 8
  %86 = call i32 @MEM_32bits()
  %87 = icmp ne i32 %86, 0
  br i1 %87, label %88, label %92

88:                                               ; preds = %77
  %89 = load i64, ptr %19, align 8
  %90 = call i64 @ZSTD_maxShortOffset()
  %91 = icmp ugt i64 %89, %90
  br label %92

92:                                               ; preds = %88, %77
  %93 = phi i1 [ false, %77 ], [ %91, %88 ]
  %94 = zext i1 %93 to i32
  store i32 %94, ptr %20, align 4
  %95 = load ptr, ptr %9, align 8
  %96 = getelementptr inbounds %struct.ZSTD_DCtx_s, ptr %95, i32 0, i32 31
  %97 = load i32, ptr %96, align 4
  store i32 %97, ptr %21, align 4
  %98 = load ptr, ptr %9, align 8
  %99 = load ptr, ptr %16, align 8
  %100 = load i64, ptr %13, align 8
  %101 = call i64 @ZSTD_decodeSeqHeaders(ptr noundef %98, ptr noundef %22, ptr noundef %99, i64 noundef %100)
  store i64 %101, ptr %23, align 8
  %102 = load i64, ptr %23, align 8
  %103 = call i32 @ERR_isError(i64 noundef %102)
  %104 = icmp ne i32 %103, 0
  br i1 %104, label %105, label %107

105:                                              ; preds = %92
  %106 = load i64, ptr %23, align 8
  store i64 %106, ptr %8, align 8
  br label %213

107:                                              ; preds = %92
  %108 = load i64, ptr %23, align 8
  %109 = load ptr, ptr %16, align 8
  %110 = getelementptr inbounds i8, ptr %109, i64 %108
  store ptr %110, ptr %16, align 8
  %111 = load i64, ptr %23, align 8
  %112 = load i64, ptr %13, align 8
  %113 = sub i64 %112, %111
  store i64 %113, ptr %13, align 8
  %114 = load ptr, ptr %10, align 8
  %115 = icmp eq ptr %114, null
  br i1 %115, label %119, label %116

116:                                              ; preds = %107
  %117 = load i64, ptr %11, align 8
  %118 = icmp eq i64 %117, 0
  br i1 %118, label %119, label %123

119:                                              ; preds = %116, %107
  %120 = load i32, ptr %22, align 4
  %121 = icmp sgt i32 %120, 0
  br i1 %121, label %122, label %123

122:                                              ; preds = %119
  store i64 -70, ptr %8, align 8
  br label %213

123:                                              ; preds = %119, %116
  %124 = call i32 @MEM_64bits()
  %125 = icmp ne i32 %124, 0
  br i1 %125, label %126, label %132

126:                                              ; preds = %123
  %127 = load ptr, ptr %10, align 8
  %128 = ptrtoint ptr %127 to i64
  %129 = sub i64 -1, %128
  %130 = icmp ult i64 %129, 1048576
  br i1 %130, label %131, label %132

131:                                              ; preds = %126
  store i64 -70, ptr %8, align 8
  br label %213

132:                                              ; preds = %126, %123
  %133 = load i32, ptr %20, align 4
  %134 = icmp ne i32 %133, 0
  br i1 %134, label %144, label %135

135:                                              ; preds = %132
  %136 = load i32, ptr %21, align 4
  %137 = icmp ne i32 %136, 0
  br i1 %137, label %173, label %138

138:                                              ; preds = %135
  %139 = load i64, ptr %19, align 8
  %140 = icmp ugt i64 %139, 16777216
  br i1 %140, label %141, label %173

141:                                              ; preds = %138
  %142 = load i32, ptr %22, align 4
  %143 = icmp sgt i32 %142, 8
  br i1 %143, label %144, label %173

144:                                              ; preds = %141, %132
  %145 = load ptr, ptr %9, align 8
  %146 = getelementptr inbounds %struct.ZSTD_DCtx_s, ptr %145, i32 0, i32 2
  %147 = load ptr, ptr %146, align 8
  %148 = load i32, ptr %22, align 4
  %149 = call i64 @ZSTD_getOffsetInfo(ptr noundef %147, i32 noundef %148)
  store i64 %149, ptr %24, align 4
  %150 = load i32, ptr %20, align 4
  %151 = icmp ne i32 %150, 0
  br i1 %151, label %152, label %160

152:                                              ; preds = %144
  %153 = getelementptr inbounds %struct.ZSTD_OffsetInfo, ptr %24, i32 0, i32 1
  %154 = load i32, ptr %153, align 4
  %155 = call i32 @MEM_32bits()
  %156 = icmp ne i32 %155, 0
  %157 = select i1 %156, i32 25, i32 57
  %158 = icmp ule i32 %154, %157
  br i1 %158, label %159, label %160

159:                                              ; preds = %152
  store i32 0, ptr %20, align 4
  br label %160

160:                                              ; preds = %159, %152, %144
  %161 = load i32, ptr %21, align 4
  %162 = icmp ne i32 %161, 0
  br i1 %162, label %172, label %163

163:                                              ; preds = %160
  %164 = call i32 @MEM_64bits()
  %165 = icmp ne i32 %164, 0
  %166 = select i1 %165, i32 7, i32 20
  store i32 %166, ptr %25, align 4
  %167 = getelementptr inbounds %struct.ZSTD_OffsetInfo, ptr %24, i32 0, i32 0
  %168 = load i32, ptr %167, align 4
  %169 = load i32, ptr %25, align 4
  %170 = icmp uge i32 %168, %169
  %171 = zext i1 %170 to i32
  store i32 %171, ptr %21, align 4
  br label %172

172:                                              ; preds = %163, %160
  br label %173

173:                                              ; preds = %172, %141, %138, %135
  %174 = load ptr, ptr %9, align 8
  %175 = getelementptr inbounds %struct.ZSTD_DCtx_s, ptr %174, i32 0, i32 31
  store i32 0, ptr %175, align 4
  %176 = load i32, ptr %21, align 4
  %177 = icmp ne i32 %176, 0
  br i1 %177, label %178, label %188

178:                                              ; preds = %173
  %179 = load ptr, ptr %9, align 8
  %180 = load ptr, ptr %10, align 8
  %181 = load i64, ptr %11, align 8
  %182 = load ptr, ptr %16, align 8
  %183 = load i64, ptr %13, align 8
  %184 = load i32, ptr %22, align 4
  %185 = load i32, ptr %20, align 4
  %186 = load i32, ptr %14, align 4
  %187 = call i64 @ZSTD_decompressSequencesLong(ptr noundef %179, ptr noundef %180, i64 noundef %181, ptr noundef %182, i64 noundef %183, i32 noundef %184, i32 noundef %185, i32 noundef %186)
  store i64 %187, ptr %8, align 8
  br label %213

188:                                              ; preds = %173
  %189 = load ptr, ptr %9, align 8
  %190 = getelementptr inbounds %struct.ZSTD_DCtx_s, ptr %189, i32 0, i32 52
  %191 = load i32, ptr %190, align 8
  %192 = icmp eq i32 %191, 2
  br i1 %192, label %193, label %203

193:                                              ; preds = %188
  %194 = load ptr, ptr %9, align 8
  %195 = load ptr, ptr %10, align 8
  %196 = load i64, ptr %11, align 8
  %197 = load ptr, ptr %16, align 8
  %198 = load i64, ptr %13, align 8
  %199 = load i32, ptr %22, align 4
  %200 = load i32, ptr %20, align 4
  %201 = load i32, ptr %14, align 4
  %202 = call i64 @ZSTD_decompressSequencesSplitLitBuffer(ptr noundef %194, ptr noundef %195, i64 noundef %196, ptr noundef %197, i64 noundef %198, i32 noundef %199, i32 noundef %200, i32 noundef %201)
  store i64 %202, ptr %8, align 8
  br label %213

203:                                              ; preds = %188
  %204 = load ptr, ptr %9, align 8
  %205 = load ptr, ptr %10, align 8
  %206 = load i64, ptr %11, align 8
  %207 = load ptr, ptr %16, align 8
  %208 = load i64, ptr %13, align 8
  %209 = load i32, ptr %22, align 4
  %210 = load i32, ptr %20, align 4
  %211 = load i32, ptr %14, align 4
  %212 = call i64 @ZSTD_decompressSequences(ptr noundef %204, ptr noundef %205, i64 noundef %206, ptr noundef %207, i64 noundef %208, i32 noundef %209, i32 noundef %210, i32 noundef %211)
  store i64 %212, ptr %8, align 8
  br label %213

213:                                              ; preds = %203, %193, %178, %131, %122, %105, %41, %29
  %214 = load i64, ptr %8, align 8
  ret i64 %214
}