; Function Attrs: nounwind uwtable
define dso_local i64 @ZSTD_decompressBlock_internal(ptr noundef %0, ptr noundef %1, i64 noundef %2, ptr noundef %3, i64 noundef %4, i32 noundef %5, i32 noundef %6) local_unnamed_addr #1 {
  %8 = alloca i32, align 4
  %9 = icmp ugt i64 %4, 131072
  br i1 %9, label %61, label %10

10:                                               ; preds = %7
  %11 = tail call i64 @ZSTD_decodeLiteralsBlock(ptr noundef %0, ptr noundef %3, i64 noundef %4, ptr noundef %1, i64 noundef %2, i32 noundef %6)
  %12 = icmp ult i64 %11, -119
  br i1 %12, label %13, label %61

13:                                               ; preds = %10
  %14 = getelementptr inbounds i8, ptr %3, i64 %11
  %15 = sub nsw i64 %4, %11
  %.not80 = icmp eq i32 %5, 0
  br i1 %.not80, label %.thread, label %16

.thread:                                          ; preds = %13
  %.mux85 = tail call i64 @llvm.umin.i64(i64 %2, i64 131072)
  br label %20

16:                                               ; preds = %13
  %17 = getelementptr inbounds nuw i8, ptr %0, i64 29944
  %18 = load i32, ptr %17, align 8
  %19 = zext i32 %18 to i64
  %spec.select = tail call i64 @llvm.umin.i64(i64 %2, i64 %19)
  br label %20

20:                                               ; preds = %16, %.thread
  %21 = phi i64 [ %.mux85, %.thread ], [ %spec.select, %16 ]
  %22 = getelementptr inbounds nuw i8, ptr %1, i64 %21
  %23 = getelementptr inbounds nuw i8, ptr %0, i64 29904
  %24 = load ptr, ptr %23, align 8
  %25 = ptrtoint ptr %22 to i64
  %26 = ptrtoint ptr %24 to i64
  %27 = sub i64 %25, %26
  %28 = getelementptr inbounds nuw i8, ptr %0, i64 30196
  %29 = load i32, ptr %28, align 4
  %30 = call i64 @ZSTD_decodeSeqHeaders(ptr noundef %0, ptr noundef nonnull %8, ptr noundef %14, i64 noundef %15)
  %31 = icmp ult i64 %30, -119
  br i1 %31, label %32, label %61

32:                                               ; preds = %20
  %33 = getelementptr inbounds i8, ptr %14, i64 %30
  %34 = sub i64 %15, %30
  %35 = icmp eq ptr %1, null
  %36 = icmp eq i64 %2, 0
  %or.cond = or i1 %35, %36
  %37 = load i32, ptr %8, align 4
  %38 = icmp sgt i32 %37, 0
  %or.cond3 = select i1 %or.cond, i1 %38, i1 false
  %39 = icmp ugt ptr %1, inttoptr (i64 -1048577 to ptr)
  %or.cond86 = or i1 %39, %or.cond3
  br i1 %or.cond86, label %61, label %40

40:                                               ; preds = %32
  %41 = icmp eq i32 %29, 0
  %42 = icmp ugt i64 %27, 16777216
  %or.cond5 = select i1 %41, i1 %42, i1 false
  %43 = icmp sgt i32 %37, 8
  %or.cond7 = select i1 %or.cond5, i1 %43, i1 false
  br i1 %or.cond7, label %44, label %50

44:                                               ; preds = %40
  %45 = getelementptr inbounds nuw i8, ptr %0, i64 16
  %46 = load ptr, ptr %45, align 8
  %47 = tail call fastcc i64 @ZSTD_getOffsetInfo(ptr noundef %46, i32 noundef %37)
  %.sroa.0.0.extract.trunc = trunc i64 %47 to i32
  %48 = icmp ugt i32 %.sroa.0.0.extract.trunc, 6
  %49 = zext i1 %48 to i32
  br label %50

50:                                               ; preds = %44, %40
  %.076 = phi i32 [ %49, %44 ], [ %29, %40 ]
  store i32 0, ptr %28, align 4
  %.not83 = icmp eq i32 %.076, 0
  br i1 %.not83, label %53, label %51

51:                                               ; preds = %50
  %52 = tail call fastcc i64 @ZSTD_decompressSequencesLong(ptr noundef nonnull %0, ptr noundef %1, i64 noundef %2, ptr noundef %33, i64 noundef %34, i32 noundef %37)
  br label %61

53:                                               ; preds = %50
  %54 = getelementptr inbounds nuw i8, ptr %0, i64 30360
  %55 = load i32, ptr %54, align 8
  %56 = icmp eq i32 %55, 2
  br i1 %56, label %57, label %59

57:                                               ; preds = %53
  %58 = tail call fastcc i64 @ZSTD_decompressSequencesSplitLitBuffer(ptr noundef nonnull %0, ptr noundef %1, i64 noundef %2, ptr noundef %33, i64 noundef %34, i32 noundef %37)
  br label %61

59:                                               ; preds = %53
  %60 = tail call fastcc i64 @ZSTD_decompressSequences(ptr noundef nonnull %0, ptr noundef %1, i64 noundef %2, ptr noundef %33, i64 noundef %34, i32 noundef %37)
  br label %61

61:                                               ; preds = %32, %20, %10, %7, %59, %57, %51
  %.0 = phi i64 [ %52, %51 ], [ %58, %57 ], [ %60, %59 ], [ -72, %7 ], [ %11, %10 ], [ %30, %20 ], [ -70, %32 ]
  ret i64 %.0
}